; Function Attrs: mustprogress uwtable
define dso_local void @_ZN4Luau11TypePackVarC2ERKNS_7VariantIJNS_9Unifiable5BoundIPKS0_EENS2_5ErrorIS5_EENS_12FreeTypePackENS_15GenericTypePackENS_8TypePackENS_16VariadicTypePackENS_15BlockedTypePackENS_28TypeFunctionInstanceTypePackEEEE(ptr noundef nonnull align 8 dereferenceable(88) initializes((0, 4)) %0, ptr noundef nonnull align 8 dereferenceable(72) %1) unnamed_addr #2 align 2 {
  %3 = load i32, ptr %1, align 8, !tbaa !49
  store i32 %3, ptr %0, align 8, !tbaa !49
  %4 = sext i32 %3 to i64
  %5 = getelementptr inbounds [8 x ptr], ptr @_ZZN4Luau7VariantIJNS_9Unifiable5BoundIPKNS_11TypePackVarEEENS1_5ErrorIS5_EENS_12FreeTypePackENS_15GenericTypePackENS_8TypePackENS_16VariadicTypePackENS_15BlockedTypePackENS_28TypeFunctionInstanceTypePackEEEC1ERKSF_E5table, i64 0, i64 %4
  %6 = load ptr, ptr %5, align 8, !tbaa !51
  %7 = getelementptr inbounds nuw i8, ptr %0, i64 8
  %8 = getelementptr inbounds nuw i8, ptr %1, i64 8
  tail call void %6(ptr noundef nonnull %7, ptr noundef nonnull %8)
  %9 = getelementptr inbounds nuw i8, ptr %0, i64 72
  store i8 0, ptr %9, align 8, !tbaa !52
  %10 = getelementptr inbounds nuw i8, ptr %0, i64 80
  store ptr null, ptr %10, align 8, !tbaa !55
  ret void
}